target datalayout = "e-m:e-p270:32:32-p271:32:32-p272:64:64-i64:64-i128:128-f80:128-n8:16:32:64-S128"
target triple = "x86_64-pc-linux-gnu"

%struct.h5tool_format_t = type { i8, ptr, ptr, ptr, ptr, ptr, ptr, ptr, ptr, ptr, ptr, ptr, ptr, ptr, ptr, ptr, ptr, ptr, i32, i32, i32, ptr, ptr, ptr, i32, ptr, ptr, ptr, ptr, ptr, ptr, ptr, ptr, ptr, ptr, ptr, ptr, ptr, ptr, ptr, ptr, i32, i64, ptr, ptr, ptr, ptr, ptr, i32, ptr, i32, i32, ptr, i32, ptr, ptr, ptr, ptr, i32, i32 }
%struct.h5tools_context_t = type { i64, i64, i32, i32, [32 x i64], [32 x i64], i32, i64, i32, i64, i32, i32, [32 x i64], [32 x i64], i64, ptr, ptr, i32, i32 }

@h5tools_dataformat = external global %struct.h5tool_format_t, align 8
@dump_indent = external global i32, align 4
@type_table = external global ptr, align 8
@h5dump_type_table = external global ptr, align 8
@rawoutstream = external global ptr, align 8

; Function Attrs: nounwind uwtable
define dso_local void @dump_datatype(i64 noundef %0) #0 {
  %2 = alloca i64, align 8
  %3 = alloca %struct.h5tools_context_t, align 8
  %4 = alloca ptr, align 8
  store i64 %0, ptr %2, align 8, !tbaa !4
  call void @llvm.lifetime.start.p0(i64 1120, ptr %3) #10
  call void @llvm.lifetime.start.p0(i64 8, ptr %4) #10
  store ptr @h5tools_dataformat, ptr %4, align 8, !tbaa !8
  call void @llvm.memset.p0.i64(ptr align 8 %3, i8 0, i64 1120, i1 false)
  %5 = load i32, ptr @dump_indent, align 4, !tbaa !11
  %6 = udiv i32 %5, 3
  %7 = getelementptr inbounds nuw %struct.h5tools_context_t, ptr %3, i32 0, i32 10
  store i32 %6, ptr %7, align 8, !tbaa !13
  %8 = load i32, ptr @dump_indent, align 4, !tbaa !11
  %9 = zext i32 %8 to i64
  %10 = getelementptr inbounds nuw %struct.h5tools_context_t, ptr %3, i32 0, i32 0
  store i64 %9, ptr %10, align 8, !tbaa !17
  %11 = load ptr, ptr @type_table, align 8, !tbaa !18
  store ptr %11, ptr @h5dump_type_table, align 8, !tbaa !18
  %12 = load ptr, ptr @rawoutstream, align 8, !tbaa !20
  %13 = load ptr, ptr %4, align 8, !tbaa !8
  %14 = load i64, ptr %2, align 8, !tbaa !4
  call void @h5tools_dump_datatype(ptr noundef %12, ptr noundef %13, ptr noundef %3, i64 noundef %14)
  store ptr null, ptr @h5dump_type_table, align 8, !tbaa !18
  call void @llvm.lifetime.end.p0(i64 8, ptr %4) #10
  call void @llvm.lifetime.end.p0(i64 1120, ptr %3) #10
  ret void
}