; Function Attrs: nounwind uwtable
define dso_local void @dump_datatype(i64 noundef %0) local_unnamed_addr #0 {
  %2 = alloca %struct.h5tools_context_t, align 8
  call void @llvm.lifetime.start.p0(i64 1120, ptr nonnull %2) #15
  %3 = getelementptr inbounds nuw i8, ptr %2, i64 8
  call void @llvm.memset.p0.i64(ptr noundef nonnull align 8 dereferenceable(1120) %3, i8 0, i64 1112, i1 false)
  %4 = load i32, ptr @dump_indent, align 4, !tbaa !4
  %5 = udiv i32 %4, 3
  %6 = getelementptr inbounds nuw i8, ptr %2, i64 568
  store i32 %5, ptr %6, align 8, !tbaa !8
  %7 = zext i32 %4 to i64
  store i64 %7, ptr %2, align 8, !tbaa !14
  %8 = load ptr, ptr @type_table, align 8, !tbaa !15
  store ptr %8, ptr @h5dump_type_table, align 8, !tbaa !15
  %9 = load ptr, ptr @rawoutstream, align 8, !tbaa !17
  call void @h5tools_dump_datatype(ptr noundef %9, ptr noundef nonnull @h5tools_dataformat, ptr noundef nonnull %2, i64 noundef %0) #15
  store ptr null, ptr @h5dump_type_table, align 8, !tbaa !15
  call void @llvm.lifetime.end.p0(i64 1120, ptr nonnull %2) #15
  ret void
}